target datalayout = "e-m:e-p270:32:32-p271:32:32-p272:64:64-i64:64-i128:128-f80:128-n8:16:32:64-S128"
target triple = "x86_64-pc-linux-gnu"

%struct.Gia_Man_t_ = type { ptr, ptr, i32, i32, i32, i32, ptr, ptr, i32, i32, i32, ptr, ptr, %struct.Vec_Int_t_, %struct.Vec_Int_t_, i32, i32, i32, %struct.Vec_Int_t_, ptr, ptr, ptr, i32, i32, i32, i32, ptr, ptr, ptr, ptr, ptr, i32, i32, ptr, i32, ptr, ptr, ptr, ptr, ptr, ptr, ptr, ptr, ptr, ptr, ptr, ptr, ptr, ptr, ptr, ptr, ptr, ptr, %struct.Vec_Int_t_, %struct.Vec_Int_t_, ptr, ptr, ptr, ptr, ptr, ptr, ptr, ptr, ptr, ptr, ptr, ptr, ptr, ptr, ptr, ptr, ptr, ptr, ptr, ptr, ptr, i32, float, float, ptr, ptr, i32, ptr, ptr, ptr, ptr, ptr, ptr, ptr, ptr, ptr, ptr, ptr, ptr, ptr, ptr, ptr, i64, i64, ptr, ptr, i32, i32, i32, i32, i32, i32, i32, i32, i32, i32, i32, i32, ptr, ptr, ptr, ptr, ptr, ptr, ptr, ptr, i32, i32, i32, ptr, i32, i32, ptr, ptr, ptr, ptr, ptr, ptr, i32, i32, ptr, %struct.Vec_Int_t_, %struct.Vec_Int_t_, %struct.Vec_Int_t_, ptr, ptr, ptr, i32, i32, i32, i32, ptr, ptr, ptr, ptr, ptr }
%struct.Vec_Int_t_ = type { i32, i32, ptr }
%struct.Gia_Obj_t_ = type <{ i64, i32 }>
%struct.Cnf_Dat_t_ = type { ptr, i32, i32, i32, ptr, ptr, ptr, ptr, ptr, ptr }
%struct.sat_solver_t = type { i32, i32, i32, i32, %struct.Sat_Mem_t_, i32, i32, ptr, ptr, i32, i32, i32, i32, i32, i64, i64, i64, ptr, ptr, i32, i32, %struct.veci_t, ptr, i32, ptr, ptr, ptr, ptr, ptr, ptr, ptr, ptr, %struct.veci_t, %struct.veci_t, %struct.veci_t, %struct.veci_t, ptr, %struct.veci_t, i32, i32, i32, double, double, i32, i32, i32, %struct.stats_t, i32, i32, i32, i32, i32, i64, i64, i64, %struct.veci_t, ptr, i32, i32, i32, %struct.veci_t, %struct.veci_t, i32, i32, i32, ptr, ptr, i32, ptr, i32, i32, %struct.veci_t, %struct.veci_t, %struct.veci_t, ptr, ptr, i32, ptr }
%struct.Sat_Mem_t_ = type { [2 x i32], [2 x i32], [2 x i32], [2 x i32], i32, i32, i32, i32, ptr }
%struct.stats_t = type { i32, i32, i32, i64, i64, i64, i64, i64, i64, i64 }
%struct.veci_t = type { i32, i32, ptr }

; Function Attrs: inlinehint nounwind uwtable
define internal ptr @Gia_ManObj(ptr noundef %0, i32 noundef %1) #4 {
  %3 = alloca ptr, align 8
  %4 = alloca i32, align 4
  store ptr %0, ptr %3, align 8, !tbaa !3
  store i32 %1, ptr %4, align 4, !tbaa !8
  %5 = load ptr, ptr %3, align 8, !tbaa !3
  %6 = getelementptr inbounds nuw %struct.Gia_Man_t_, ptr %5, i32 0, i32 6
  %7 = load ptr, ptr %6, align 8, !tbaa !34
  %8 = load i32, ptr %4, align 4, !tbaa !8
  %9 = sext i32 %8 to i64
  %10 = getelementptr inbounds %struct.Gia_Obj_t_, ptr %7, i64 %9
  ret ptr %10
}

; Function Attrs: inlinehint nounwind uwtable
define internal i32 @Abc_Lit2Var(i32 noundef %0) #4 {
  %2 = alloca i32, align 4
  store i32 %0, ptr %2, align 4, !tbaa !8
  %3 = load i32, ptr %2, align 4, !tbaa !8
  %4 = ashr i32 %3, 1
  ret i32 %4
}

; Function Attrs: inlinehint nounwind uwtable
define internal i32 @Abc_LitIsCompl(i32 noundef %0) #4 {
  %2 = alloca i32, align 4
  store i32 %0, ptr %2, align 4, !tbaa !8
  %3 = load i32, ptr %2, align 4, !tbaa !8
  %4 = and i32 %3, 1
  ret i32 %4
}

; Function Attrs: inlinehint nounwind uwtable
define internal i32 @Vec_IntEntry(ptr noundef %0, i32 noundef %1) #4 {
  %3 = alloca ptr, align 8
  %4 = alloca i32, align 4
  store ptr %0, ptr %3, align 8, !tbaa !35
  store i32 %1, ptr %4, align 4, !tbaa !8
  %5 = load ptr, ptr %3, align 8, !tbaa !35
  %6 = getelementptr inbounds nuw %struct.Vec_Int_t_, ptr %5, i32 0, i32 2
  %7 = load ptr, ptr %6, align 8, !tbaa !40
  %8 = load i32, ptr %4, align 4, !tbaa !8
  %9 = sext i32 %8 to i64
  %10 = getelementptr inbounds i32, ptr %7, i64 %9
  %11 = load i32, ptr %10, align 4, !tbaa !8
  ret i32 %11
}

; Function Attrs: inlinehint nounwind uwtable
define internal i32 @Vec_IntSize(ptr noundef %0) #4 {
  %2 = alloca ptr, align 8
  store ptr %0, ptr %2, align 8, !tbaa !35
  %3 = load ptr, ptr %2, align 8, !tbaa !35
  %4 = getelementptr inbounds nuw %struct.Vec_Int_t_, ptr %3, i32 0, i32 1
  %5 = load i32, ptr %4, align 4, !tbaa !38
  ret i32 %5
}

; Function Attrs: inlinehint nounwind uwtable
define internal i32 @sat_solver_var_value(ptr noundef %0, i32 noundef %1) #4 {
  %3 = alloca ptr, align 8
  %4 = alloca i32, align 4
  store ptr %0, ptr %3, align 8, !tbaa !48
  store i32 %1, ptr %4, align 4, !tbaa !8
  %5 = load ptr, ptr %3, align 8, !tbaa !48
  %6 = getelementptr inbounds nuw %struct.sat_solver_t, ptr %5, i32 0, i32 36
  %7 = load ptr, ptr %6, align 8, !tbaa !58
  %8 = load i32, ptr %4, align 4, !tbaa !8
  %9 = sext i32 %8 to i64
  %10 = getelementptr inbounds i32, ptr %7, i64 %9
  %11 = load i32, ptr %10, align 4, !tbaa !8
  %12 = icmp eq i32 %11, 1
  %13 = zext i1 %12 to i32
  ret i32 %13
}

; Function Attrs: inlinehint nounwind uwtable
define internal i32 @Gia_ObjId(ptr noundef %0, ptr noundef %1) #4 {
  %3 = alloca ptr, align 8
  %4 = alloca ptr, align 8
  store ptr %0, ptr %3, align 8, !tbaa !3
  store ptr %1, ptr %4, align 8, !tbaa !31
  %5 = load ptr, ptr %4, align 8, !tbaa !31
  %6 = load ptr, ptr %3, align 8, !tbaa !3
  %7 = getelementptr inbounds nuw %struct.Gia_Man_t_, ptr %6, i32 0, i32 6
  %8 = load ptr, ptr %7, align 8, !tbaa !34
  %9 = ptrtoint ptr %5 to i64
  %10 = ptrtoint ptr %8 to i64
  %11 = sub i64 %9, %10
  %12 = sdiv exact i64 %11, 12
  %13 = trunc i64 %12 to i32
  ret i32 %13
}

; Function Attrs: inlinehint nounwind uwtable
define internal ptr @Gia_ManCi(ptr noundef %0, i32 noundef %1) #4 {
  %3 = alloca ptr, align 8
  %4 = alloca i32, align 4
  store ptr %0, ptr %3, align 8, !tbaa !3
  store i32 %1, ptr %4, align 4, !tbaa !8
  %5 = load ptr, ptr %3, align 8, !tbaa !3
  %6 = load ptr, ptr %3, align 8, !tbaa !3
  %7 = getelementptr inbounds nuw %struct.Gia_Man_t_, ptr %6, i32 0, i32 11
  %8 = load ptr, ptr %7, align 8, !tbaa !41
  %9 = load i32, ptr %4, align 4, !tbaa !8
  %10 = call i32 @Vec_IntEntry(ptr noundef %8, i32 noundef %9)
  %11 = call ptr @Gia_ManObj(ptr noundef %5, i32 noundef %10)
  ret ptr %11
}

; Function Attrs: inlinehint nounwind uwtable
define internal i32 @Gia_ManPiNum(ptr noundef %0) #4 {
  %2 = alloca ptr, align 8
  store ptr %0, ptr %2, align 8, !tbaa !3
  %3 = load ptr, ptr %2, align 8, !tbaa !3
  %4 = getelementptr inbounds nuw %struct.Gia_Man_t_, ptr %3, i32 0, i32 11
  %5 = load ptr, ptr %4, align 8, !tbaa !41
  %6 = call i32 @Vec_IntSize(ptr noundef %5)
  %7 = load ptr, ptr %2, align 8, !tbaa !3
  %8 = getelementptr inbounds nuw %struct.Gia_Man_t_, ptr %7, i32 0, i32 2
  %9 = load i32, ptr %8, align 8, !tbaa !42
  %10 = sub nsw i32 %6, %9
  ret i32 %10
}

; Function Attrs: nounwind uwtable
define ptr @Cec_SplitDeriveModel(ptr noundef %0, ptr noundef %1, ptr noundef %2) #0 {
  %4 = alloca ptr, align 8
  %5 = alloca ptr, align 8
  %6 = alloca ptr, align 8
  %7 = alloca ptr, align 8
  %8 = alloca ptr, align 8
  %9 = alloca i32, align 4
  %10 = alloca i32, align 4
  %11 = alloca ptr, align 8
  store ptr %0, ptr %4, align 8, !tbaa !3
  store ptr %1, ptr %5, align 8, !tbaa !46
  store ptr %2, ptr %6, align 8, !tbaa !48
  call void @llvm.lifetime.start.p0(i64 8, ptr %7) #12
  call void @llvm.lifetime.start.p0(i64 8, ptr %8) #12
  call void @llvm.lifetime.start.p0(i64 4, ptr %9) #12
  call void @llvm.lifetime.start.p0(i64 4, ptr %10) #12
  call void @llvm.lifetime.start.p0(i64 8, ptr %11) #12
  %12 = load ptr, ptr %4, align 8, !tbaa !3
  %13 = call i32 @Gia_ManPiNum(ptr noundef %12)
  %14 = sext i32 %13 to i64
  %15 = call noalias ptr @calloc(i64 noundef %14, i64 noundef 4) #14
  store ptr %15, ptr %11, align 8, !tbaa !37
  store i32 0, ptr %9, align 4, !tbaa !8
  br label %16

16:                                               ; preds = %44, %3
  %17 = load i32, ptr %9, align 4, !tbaa !8
  %18 = load ptr, ptr %4, align 8, !tbaa !3
  %19 = call i32 @Gia_ManPiNum(ptr noundef %18)
  %20 = icmp slt i32 %17, %19
  br i1 %20, label %21, label %26

21:                                               ; preds = %16
  %22 = load ptr, ptr %4, align 8, !tbaa !3
  %23 = load i32, ptr %9, align 4, !tbaa !8
  %24 = call ptr @Gia_ManCi(ptr noundef %22, i32 noundef %23)
  store ptr %24, ptr %8, align 8, !tbaa !31
  %25 = icmp ne ptr %24, null
  br label %26

26:                                               ; preds = %21, %16
  %27 = phi i1 [ false, %16 ], [ %25, %21 ]
  br i1 %27, label %28, label %47

28:                                               ; preds = %26
  %29 = load ptr, ptr %6, align 8, !tbaa !48
  %30 = load ptr, ptr %5, align 8, !tbaa !46
  %31 = getelementptr inbounds nuw %struct.Cnf_Dat_t_, ptr %30, i32 0, i32 5
  %32 = load ptr, ptr %31, align 8, !tbaa !50
  %33 = load ptr, ptr %4, align 8, !tbaa !3
  %34 = load ptr, ptr %8, align 8, !tbaa !31
  %35 = call i32 @Gia_ObjId(ptr noundef %33, ptr noundef %34)
  %36 = sext i32 %35 to i64
  %37 = getelementptr inbounds i32, ptr %32, i64 %36
  %38 = load i32, ptr %37, align 4, !tbaa !8
  %39 = call i32 @sat_solver_var_value(ptr noundef %29, i32 noundef %38)
  %40 = load ptr, ptr %11, align 8, !tbaa !37
  %41 = load i32, ptr %9, align 4, !tbaa !8
  %42 = sext i32 %41 to i64
  %43 = getelementptr inbounds i32, ptr %40, i64 %42
  store i32 %39, ptr %43, align 4, !tbaa !8
  br label %44

44:                                               ; preds = %28
  %45 = load i32, ptr %9, align 4, !tbaa !8
  %46 = add nsw i32 %45, 1
  store i32 %46, ptr %9, align 4, !tbaa !8
  br label %16, !llvm.loop !54

47:                                               ; preds = %26
  %48 = load ptr, ptr %4, align 8, !tbaa !3
  %49 = getelementptr inbounds nuw %struct.Gia_Man_t_, ptr %48, i32 0, i32 92
  %50 = load ptr, ptr %49, align 8, !tbaa !55
  %51 = icmp ne ptr %50, null
  br i1 %51, label %52, label %83

52:                                               ; preds = %47
  store i32 0, ptr %9, align 4, !tbaa !8
  br label %53

53:                                               ; preds = %79, %52
  %54 = load i32, ptr %9, align 4, !tbaa !8
  %55 = load ptr, ptr %4, align 8, !tbaa !3
  %56 = getelementptr inbounds nuw %struct.Gia_Man_t_, ptr %55, i32 0, i32 92
  %57 = load ptr, ptr %56, align 8, !tbaa !55
  %58 = call i32 @Vec_IntSize(ptr noundef %57)
  %59 = icmp slt i32 %54, %58
  br i1 %59, label %60, label %66

60:                                               ; preds = %53
  %61 = load ptr, ptr %4, align 8, !tbaa !3
  %62 = getelementptr inbounds nuw %struct.Gia_Man_t_, ptr %61, i32 0, i32 92
  %63 = load ptr, ptr %62, align 8, !tbaa !55
  %64 = load i32, ptr %9, align 4, !tbaa !8
  %65 = call i32 @Vec_IntEntry(ptr noundef %63, i32 noundef %64)
  store i32 %65, ptr %10, align 4, !tbaa !8
  br label %66

66:                                               ; preds = %60, %53
  %67 = phi i1 [ false, %53 ], [ true, %60 ]
  br i1 %67, label %68, label %82

68:                                               ; preds = %66
  %69 = load i32, ptr %10, align 4, !tbaa !8
  %70 = call i32 @Abc_LitIsCompl(i32 noundef %69)
  %71 = icmp ne i32 %70, 0
  %72 = xor i1 %71, true
  %73 = zext i1 %72 to i32
  %74 = load ptr, ptr %11, align 8, !tbaa !37
  %75 = load i32, ptr %10, align 4, !tbaa !8
  %76 = call i32 @Abc_Lit2Var(i32 noundef %75)
  %77 = sext i32 %76 to i64
  %78 = getelementptr inbounds i32, ptr %74, i64 %77
  store i32 %73, ptr %78, align 4, !tbaa !8
  br label %79

79:                                               ; preds = %68
  %80 = load i32, ptr %9, align 4, !tbaa !8
  %81 = add nsw i32 %80, 1
  store i32 %81, ptr %9, align 4, !tbaa !8
  br label %53, !llvm.loop !56

82:                                               ; preds = %66
  br label %83

83:                                               ; preds = %82, %47
  %84 = load ptr, ptr %4, align 8, !tbaa !3
  %85 = call i32 @Gia_ManPiNum(ptr noundef %84)
  %86 = load ptr, ptr %11, align 8, !tbaa !37
  %87 = call ptr @Abc_CexCreate(i32 noundef 0, i32 noundef %85, ptr noundef %86, i32 noundef 0, i32 noundef 0, i32 noundef 0)
  store ptr %87, ptr %7, align 8, !tbaa !57
  %88 = load ptr, ptr %11, align 8, !tbaa !37
  %89 = icmp ne ptr %88, null
  br i1 %89, label %90, label %92

90:                                               ; preds = %83
  %91 = load ptr, ptr %11, align 8, !tbaa !37
  call void @free(ptr noundef %91) #12
  store ptr null, ptr %11, align 8, !tbaa !37
  br label %93

92:                                               ; preds = %83
  br label %93

93:                                               ; preds = %92, %90
  %94 = load ptr, ptr %7, align 8, !tbaa !57
  call void @llvm.lifetime.end.p0(i64 8, ptr %11) #12
  call void @llvm.lifetime.end.p0(i64 4, ptr %10) #12
  call void @llvm.lifetime.end.p0(i64 4, ptr %9) #12
  call void @llvm.lifetime.end.p0(i64 8, ptr %8) #12
  call void @llvm.lifetime.end.p0(i64 8, ptr %7) #12
  ret ptr %94
}