; Function Attrs: nounwind uwtable
define ptr @Cec_SplitDeriveModel(ptr noundef readonly captures(none) %0, ptr noundef readonly captures(none) %1, ptr noundef readonly captures(none) %2) local_unnamed_addr #0 {
  %4 = getelementptr i8, ptr %0, i64 16
  %.val37 = load i32, ptr %4, align 8, !tbaa !34
  %5 = getelementptr i8, ptr %0, i64 64
  %.val38 = load ptr, ptr %5, align 8, !tbaa !35
  %6 = getelementptr i8, ptr %.val38, i64 4
  %.val38.val = load i32, ptr %6, align 4, !tbaa !36
  %7 = sub nsw i32 %.val38.val, %.val37
  %8 = sext i32 %7 to i64
  %9 = tail call noalias ptr @calloc(i64 noundef %8, i64 noundef 4) #21
  %10 = icmp sgt i32 %.val38.val, %.val37
  br i1 %10, label %.lr.ph, label %.critedge

.lr.ph:                                           ; preds = %3
  %11 = getelementptr i8, ptr %0, i64 32
  %.val40 = load ptr, ptr %11, align 8, !tbaa !29
  %.not = icmp eq ptr %.val40, null
  br i1 %.not, label %.critedge, label %.lr.ph.split

.lr.ph.split:                                     ; preds = %.lr.ph
  %12 = getelementptr i8, ptr %2, i64 328
  %13 = getelementptr inbounds nuw i8, ptr %1, i64 32
  %14 = getelementptr i8, ptr %.val38, i64 8
  %.val41.val = load ptr, ptr %14, align 8, !tbaa !38
  %15 = load ptr, ptr %13, align 8, !tbaa !43
  %.val42 = load ptr, ptr %12, align 8, !tbaa !47
  br label %16

16:                                               ; preds = %.lr.ph.split, %16
  %indvars.iv = phi i64 [ 0, %.lr.ph.split ], [ %indvars.iv.next, %16 ]
  %17 = getelementptr inbounds nuw i32, ptr %.val41.val, i64 %indvars.iv
  %18 = load i32, ptr %17, align 4, !tbaa !30
  %19 = sext i32 %18 to i64
  %20 = getelementptr inbounds i32, ptr %15, i64 %19
  %21 = load i32, ptr %20, align 4, !tbaa !30
  %22 = sext i32 %21 to i64
  %23 = getelementptr inbounds i32, ptr %.val42, i64 %22
  %24 = load i32, ptr %23, align 4, !tbaa !30
  %25 = icmp eq i32 %24, 1
  %26 = zext i1 %25 to i32
  %27 = getelementptr inbounds nuw i32, ptr %9, i64 %indvars.iv
  store i32 %26, ptr %27, align 4, !tbaa !30
  %indvars.iv.next = add nuw nsw i64 %indvars.iv, 1
  %28 = icmp slt i64 %indvars.iv.next, %8
  br i1 %28, label %16, label %.critedge, !llvm.loop !58

.critedge:                                        ; preds = %16, %.lr.ph, %3
  %29 = getelementptr inbounds nuw i8, ptr %0, i64 712
  %30 = load ptr, ptr %29, align 8, !tbaa !59
  %.not29 = icmp eq ptr %30, null
  br i1 %.not29, label %.critedge2, label %.preheader

.preheader:                                       ; preds = %.critedge
  %31 = getelementptr i8, ptr %30, i64 4
  %.val3246 = load i32, ptr %31, align 4, !tbaa !36
  %32 = icmp sgt i32 %.val3246, 0
  br i1 %32, label %.lr.ph48, label %.critedge2

.lr.ph48:                                         ; preds = %.preheader
  %33 = getelementptr i8, ptr %30, i64 8
  %.val39 = load ptr, ptr %33, align 8, !tbaa !38
  %34 = zext nneg i32 %.val3246 to i64
  br label %35

35:                                               ; preds = %.lr.ph48, %35
  %indvars.iv50 = phi i64 [ 0, %.lr.ph48 ], [ %indvars.iv.next51, %35 ]
  %36 = getelementptr inbounds nuw i32, ptr %.val39, i64 %indvars.iv50
  %37 = load i32, ptr %36, align 4, !tbaa !30
  %38 = and i32 %37, 1
  %39 = xor i32 %38, 1
  %40 = ashr i32 %37, 1
  %41 = sext i32 %40 to i64
  %42 = getelementptr inbounds i32, ptr %9, i64 %41
  store i32 %39, ptr %42, align 4, !tbaa !30
  %indvars.iv.next51 = add nuw nsw i64 %indvars.iv50, 1
  %43 = icmp samesign ult i64 %indvars.iv.next51, %34
  br i1 %43, label %35, label %.critedge2.thread, !llvm.loop !60

.critedge2.thread:                                ; preds = %35
  %44 = tail call ptr @Abc_CexCreate(i32 noundef 0, i32 noundef %7, ptr noundef nonnull %9, i32 noundef 0, i32 noundef 0, i32 noundef 0) #18
  br label %46

.critedge2:                                       ; preds = %.preheader, %.critedge
  %45 = tail call ptr @Abc_CexCreate(i32 noundef 0, i32 noundef %7, ptr noundef %9, i32 noundef 0, i32 noundef 0, i32 noundef 0) #18
  %.not30 = icmp eq ptr %9, null
  br i1 %.not30, label %48, label %46

46:                                               ; preds = %.critedge2.thread, %.critedge2
  %47 = phi ptr [ %44, %.critedge2.thread ], [ %45, %.critedge2 ]
  tail call void @free(ptr noundef nonnull %9) #18
  br label %48

48:                                               ; preds = %.critedge2, %46
  %49 = phi ptr [ %45, %.critedge2 ], [ %47, %46 ]
  ret ptr %49
}